target datalayout = "e-m:e-p270:32:32-p271:32:32-p272:64:64-i64:64-i128:128-f80:128-n8:16:32:64-S128"
target triple = "x86_64-pc-linux-gnu"

%struct.RBasic = type { i64, i64 }
%struct.rb_execarg = type { %union.anon.13, i64, i64, i64, i64, i16, ptr, ptr, i32, i64, i32, i32, i32, i32, i64, i64, i64, i64, i64, i64, i64 }
%union.anon.13 = type { %struct.anon.15 }
%struct.anon.15 = type { i64, i64, i64, i64 }
%struct.anon.14 = type { i64 }
%struct.rb_imemo_tmpbuf_struct = type { i64, i64, ptr, ptr, i64 }
%struct.RString = type { %struct.RBasic, i64, %union.anon.33 }
%union.anon.33 = type { %struct.anon.34 }
%struct.anon.34 = type { ptr, %union.anon.35 }
%union.anon.35 = type { i64 }
%struct.anon.36 = type { [1 x i8] }

@.str.174 = private unnamed_addr constant [8 x i8] c"/bin/sh\00", align 1
@.str.175 = private unnamed_addr constant [3 x i8] c"sh\00", align 1
@.str.176 = private unnamed_addr constant [3 x i8] c"-c\00", align 1

; Function Attrs: inlinehint nounwind sspstrong willreturn memory(read) uwtable
define internal i64 @RB_FL_TEST_RAW(i64 noundef %0, i64 noundef %1) #5 {
  %3 = alloca i64, align 8
  %4 = alloca i64, align 8
  store i64 %0, ptr %3, align 8, !tbaa !35
  store i64 %1, ptr %4, align 8, !tbaa !35
  %5 = load i64, ptr %3, align 8, !tbaa !35
  %6 = inttoptr i64 %5 to ptr
  %7 = getelementptr inbounds nuw %struct.RBasic, ptr %6, i32 0, i32 0
  %8 = load i64, ptr %7, align 8, !tbaa !215
  %9 = load i64, ptr %4, align 8, !tbaa !35
  %10 = and i64 %8, %9
  ret i64 %10
}

; Function Attrs: inlinehint nounwind sspstrong willreturn memory(read) uwtable
define internal i64 @RSTRING_LEN(i64 noundef %0) #5 {
  %2 = alloca i64, align 8
  store i64 %0, ptr %2, align 8, !tbaa !35
  %3 = load i64, ptr %2, align 8, !tbaa !35
  %4 = inttoptr i64 %3 to ptr
  %5 = getelementptr inbounds nuw %struct.RString, ptr %4, i32 0, i32 1
  %6 = load i64, ptr %5, align 8, !tbaa !266
  ret i64 %6
}

; Function Attrs: inlinehint nounwind sspstrong willreturn memory(read) uwtable
define internal zeroext i1 @RB_FL_ANY_RAW(i64 noundef %0, i64 noundef %1) #5 {
  %3 = alloca i64, align 8
  %4 = alloca i64, align 8
  store i64 %0, ptr %3, align 8, !tbaa !35
  store i64 %1, ptr %4, align 8, !tbaa !35
  %5 = load i64, ptr %3, align 8, !tbaa !35
  %6 = load i64, ptr %4, align 8, !tbaa !35
  %7 = call i64 @RB_FL_TEST_RAW(i64 noundef %5, i64 noundef %6) #29
  %8 = icmp ne i64 %7, 0
  ret i1 %8
}

; Function Attrs: nounwind sspstrong uwtable
define internal void @exec_with_sh(ptr noundef %0, ptr noundef %1, ptr noundef %2) #0 {
  %4 = alloca ptr, align 8
  %5 = alloca ptr, align 8
  %6 = alloca ptr, align 8
  store ptr %0, ptr %4, align 8, !tbaa !64
  store ptr %1, ptr %5, align 8, !tbaa !275
  store ptr %2, ptr %6, align 8, !tbaa !275
  %7 = load ptr, ptr %4, align 8, !tbaa !64
  %8 = load ptr, ptr %5, align 8, !tbaa !275
  store ptr %7, ptr %8, align 8, !tbaa !64
  %9 = load ptr, ptr %5, align 8, !tbaa !275
  %10 = getelementptr ptr, ptr %9, i32 -1
  store ptr %10, ptr %5, align 8, !tbaa !275
  store ptr @.str.175, ptr %10, align 8, !tbaa !64
  %11 = load ptr, ptr %6, align 8, !tbaa !275
  %12 = icmp ne ptr %11, null
  br i1 %12, label %13, label %17

13:                                               ; preds = %3
  %14 = load ptr, ptr %5, align 8, !tbaa !275
  %15 = load ptr, ptr %6, align 8, !tbaa !275
  %16 = call i32 @execve(ptr noundef @.str.174, ptr noundef %14, ptr noundef %15) #27
  br label %20

17:                                               ; preds = %3
  %18 = load ptr, ptr %5, align 8, !tbaa !275
  %19 = call i32 @execv(ptr noundef @.str.174, ptr noundef %18) #27
  br label %20

20:                                               ; preds = %17, %13
  ret void
}

; Function Attrs: inlinehint nounwind sspstrong uwtable
define internal ptr @ARGVSTR2ARGV(i64 noundef %0) #1 {
  %2 = alloca i64, align 8
  %3 = alloca ptr, align 8
  store i64 %0, ptr %2, align 8, !tbaa !35
  call void @llvm.lifetime.start.p0(i64 8, ptr %3) #27
  %4 = load i64, ptr %2, align 8, !tbaa !35
  %5 = call ptr @RB_IMEMO_TMPBUF_PTR(i64 noundef %4)
  store ptr %5, ptr %3, align 8, !tbaa !275
  %6 = load ptr, ptr %3, align 8, !tbaa !275
  %7 = getelementptr ptr, ptr %6, i64 1
  call void @llvm.lifetime.end.p0(i64 8, ptr %3) #27
  ret ptr %7
}

; Function Attrs: inlinehint nounwind sspstrong uwtable
define internal ptr @RB_IMEMO_TMPBUF_PTR(i64 noundef %0) #1 {
  %2 = alloca i64, align 8
  %3 = alloca ptr, align 8
  store i64 %0, ptr %2, align 8, !tbaa !35
  call void @llvm.lifetime.start.p0(i64 8, ptr %3) #27
  %4 = load i64, ptr %2, align 8, !tbaa !35
  %5 = inttoptr i64 %4 to ptr
  store ptr %5, ptr %3, align 8, !tbaa !123
  %6 = load ptr, ptr %3, align 8, !tbaa !123
  %7 = getelementptr inbounds nuw %struct.rb_imemo_tmpbuf_struct, ptr %6, i32 0, i32 2
  %8 = load ptr, ptr %7, align 8, !tbaa !125
  call void @llvm.lifetime.end.p0(i64 8, ptr %3) #27
  ret ptr %8
}

; Function Attrs: inlinehint nounwind sspstrong willreturn memory(read, argmem: readwrite) uwtable
define internal void @rbimpl_rstring_getmem(ptr dead_on_unwind noalias writable sret(%struct.RString) align 8 %0, i64 noundef %1) #21 {
  %3 = alloca i64, align 8
  store i64 %1, ptr %3, align 8, !tbaa !35
  %4 = load i64, ptr %3, align 8, !tbaa !35
  %5 = call zeroext i1 @RB_FL_ANY_RAW(i64 noundef %4, i64 noundef 8192) #29
  br i1 %5, label %6, label %9

6:                                                ; preds = %2
  %7 = load i64, ptr %3, align 8, !tbaa !35
  %8 = inttoptr i64 %7 to ptr
  call void @llvm.memcpy.p0.p0.i64(ptr align 8 %0, ptr align 8 %8, i64 40, i1 false), !tbaa.struct !274
  br label %20

9:                                                ; preds = %2
  %10 = load i64, ptr %3, align 8, !tbaa !35
  %11 = call i64 @RSTRING_LEN(i64 noundef %10) #29
  %12 = getelementptr inbounds nuw %struct.RString, ptr %0, i32 0, i32 1
  store i64 %11, ptr %12, align 8, !tbaa !266
  %13 = load i64, ptr %3, align 8, !tbaa !35
  %14 = inttoptr i64 %13 to ptr
  %15 = getelementptr inbounds nuw %struct.RString, ptr %14, i32 0, i32 2
  %16 = getelementptr inbounds nuw %struct.anon.36, ptr %15, i32 0, i32 0
  %17 = getelementptr inbounds [1 x i8], ptr %16, i64 0, i64 0
  %18 = getelementptr inbounds nuw %struct.RString, ptr %0, i32 0, i32 2
  %19 = getelementptr inbounds nuw %struct.anon.34, ptr %18, i32 0, i32 0
  store ptr %17, ptr %19, align 8, !tbaa !66
  br label %20

20:                                               ; preds = %9, %6
  ret void
}

; Function Attrs: nounwind sspstrong uwtable
define internal i32 @proc_exec_cmd(ptr noundef %0, i64 noundef %1, i64 noundef %2) #0 {
  %4 = alloca i32, align 4
  %5 = alloca ptr, align 8
  %6 = alloca i64, align 8
  %7 = alloca i64, align 8
  %8 = alloca ptr, align 8
  %9 = alloca ptr, align 8
  %10 = alloca i32, align 4
  %11 = alloca i32, align 4
  store ptr %0, ptr %5, align 8, !tbaa !64
  store i64 %1, ptr %6, align 8, !tbaa !35
  store i64 %2, ptr %7, align 8, !tbaa !35
  call void @llvm.lifetime.start.p0(i64 8, ptr %8) #27
  call void @llvm.lifetime.start.p0(i64 8, ptr %9) #27
  call void @llvm.lifetime.start.p0(i64 4, ptr %10) #27
  %12 = load i64, ptr %6, align 8, !tbaa !35
  %13 = call ptr @ARGVSTR2ARGV(i64 noundef %12)
  store ptr %13, ptr %8, align 8, !tbaa !275
  %14 = load ptr, ptr %5, align 8, !tbaa !64
  %15 = icmp ne ptr %14, null
  br i1 %15, label %17, label %16

16:                                               ; preds = %3
  store i32 2, ptr %4, align 4
  store i32 1, ptr %11, align 4
  br label %49

17:                                               ; preds = %3
  %18 = load i64, ptr %7, align 8, !tbaa !35
  %19 = icmp ne i64 %18, 0
  br i1 %19, label %20, label %23

20:                                               ; preds = %17
  %21 = load i64, ptr %7, align 8, !tbaa !35
  %22 = call ptr @RB_IMEMO_TMPBUF_PTR(i64 noundef %21)
  br label %24

23:                                               ; preds = %17
  br label %24

24:                                               ; preds = %23, %20
  %25 = phi ptr [ %22, %20 ], [ null, %23 ]
  store ptr %25, ptr %9, align 8, !tbaa !275
  %26 = load i64, ptr %7, align 8, !tbaa !35
  %27 = icmp ne i64 %26, 0
  br i1 %27, label %28, label %33

28:                                               ; preds = %24
  %29 = load ptr, ptr %5, align 8, !tbaa !64
  %30 = load ptr, ptr %8, align 8, !tbaa !275
  %31 = load ptr, ptr %9, align 8, !tbaa !275
  %32 = call i32 @execve(ptr noundef %29, ptr noundef %30, ptr noundef %31) #27
  br label %37

33:                                               ; preds = %24
  %34 = load ptr, ptr %5, align 8, !tbaa !64
  %35 = load ptr, ptr %8, align 8, !tbaa !275
  %36 = call i32 @execv(ptr noundef %34, ptr noundef %35) #27
  br label %37

37:                                               ; preds = %33, %28
  %38 = call ptr @rb_errno_ptr()
  %39 = load i32, ptr %38, align 4, !tbaa !34
  store i32 %39, ptr %10, align 4, !tbaa !34
  %40 = load i32, ptr %10, align 4, !tbaa !34
  %41 = icmp eq i32 %40, 8
  br i1 %41, label %42, label %46

42:                                               ; preds = %37
  %43 = load ptr, ptr %5, align 8, !tbaa !64
  %44 = load ptr, ptr %8, align 8, !tbaa !275
  %45 = load ptr, ptr %9, align 8, !tbaa !275
  call void @exec_with_sh(ptr noundef %43, ptr noundef %44, ptr noundef %45)
  br label %47

46:                                               ; preds = %37
  br label %47

47:                                               ; preds = %46, %42
  %48 = load i32, ptr %10, align 4, !tbaa !34
  store i32 %48, ptr %4, align 4
  store i32 1, ptr %11, align 4
  br label %49

49:                                               ; preds = %47, %16
  call void @llvm.lifetime.end.p0(i64 4, ptr %10) #27
  call void @llvm.lifetime.end.p0(i64 8, ptr %9) #27
  call void @llvm.lifetime.end.p0(i64 8, ptr %8) #27
  %50 = load i32, ptr %4, align 4
  ret i32 %50
}

; Function Attrs: inlinehint nounwind sspstrong willreturn memory(none) uwtable
define internal zeroext i1 @RB_NIL_P(i64 noundef %0) #4 {
  %2 = alloca i64, align 8
  store i64 %0, ptr %2, align 8, !tbaa !35
  %3 = load i64, ptr %2, align 8, !tbaa !35
  %4 = icmp eq i64 %3, 4
  ret i1 %4
}

; Function Attrs: nounwind sspstrong uwtable
define internal i32 @proc_exec_sh(ptr noundef %0, i64 noundef %1) #0 {
  %3 = alloca i32, align 4
  %4 = alloca ptr, align 8
  %5 = alloca i64, align 8
  %6 = alloca ptr, align 8
  %7 = alloca i32, align 4
  store ptr %0, ptr %4, align 8, !tbaa !64
  store i64 %1, ptr %5, align 8, !tbaa !35
  call void @llvm.lifetime.start.p0(i64 8, ptr %6) #27
  %8 = load ptr, ptr %4, align 8, !tbaa !64
  store ptr %8, ptr %6, align 8, !tbaa !64
  br label %9

9:                                                ; preds = %26, %2
  %10 = load ptr, ptr %6, align 8, !tbaa !64
  %11 = load i8, ptr %10, align 1, !tbaa !66
  %12 = sext i8 %11 to i32
  %13 = icmp eq i32 %12, 32
  br i1 %13, label %24, label %14

14:                                               ; preds = %9
  %15 = load ptr, ptr %6, align 8, !tbaa !64
  %16 = load i8, ptr %15, align 1, !tbaa !66
  %17 = sext i8 %16 to i32
  %18 = icmp eq i32 %17, 9
  br i1 %18, label %24, label %19

19:                                               ; preds = %14
  %20 = load ptr, ptr %6, align 8, !tbaa !64
  %21 = load i8, ptr %20, align 1, !tbaa !66
  %22 = sext i8 %21 to i32
  %23 = icmp eq i32 %22, 10
  br label %24

24:                                               ; preds = %19, %14, %9
  %25 = phi i1 [ true, %14 ], [ true, %9 ], [ %23, %19 ]
  br i1 %25, label %26, label %29

26:                                               ; preds = %24
  %27 = load ptr, ptr %6, align 8, !tbaa !64
  %28 = getelementptr i8, ptr %27, i32 1
  store ptr %28, ptr %6, align 8, !tbaa !64
  br label %9, !llvm.loop !67

29:                                               ; preds = %24
  %30 = load ptr, ptr %6, align 8, !tbaa !64
  %31 = load i8, ptr %30, align 1, !tbaa !66
  %32 = icmp ne i8 %31, 0
  br i1 %32, label %34, label %33

33:                                               ; preds = %29
  store i32 2, ptr %3, align 4
  store i32 1, ptr %7, align 4
  br label %48

34:                                               ; preds = %29
  %35 = load i64, ptr %5, align 8, !tbaa !35
  %36 = icmp ne i64 %35, 0
  br i1 %36, label %37, label %42

37:                                               ; preds = %34
  %38 = load ptr, ptr %4, align 8, !tbaa !64
  %39 = load i64, ptr %5, align 8, !tbaa !35
  %40 = call ptr @RB_IMEMO_TMPBUF_PTR(i64 noundef %39)
  %41 = call i32 (ptr, ptr, ...) @execle(ptr noundef @.str.174, ptr noundef @.str.175, ptr noundef @.str.176, ptr noundef %38, ptr noundef null, ptr noundef %40) #27
  br label %45

42:                                               ; preds = %34
  %43 = load ptr, ptr %4, align 8, !tbaa !64
  %44 = call i32 (ptr, ptr, ...) @execl(ptr noundef @.str.174, ptr noundef @.str.175, ptr noundef @.str.176, ptr noundef %43, ptr noundef null) #27
  br label %45

45:                                               ; preds = %42, %37
  %46 = call ptr @rb_errno_ptr()
  %47 = load i32, ptr %46, align 4, !tbaa !34
  store i32 %47, ptr %3, align 4
  store i32 1, ptr %7, align 4
  br label %48

48:                                               ; preds = %45, %33
  call void @llvm.lifetime.end.p0(i64 8, ptr %6) #27
  %49 = load i32, ptr %3, align 4
  ret i32 %49
}

; Function Attrs: inlinehint nounwind sspstrong uwtable
define internal ptr @RSTRING_PTR(i64 noundef %0) #1 {
  %2 = alloca i64, align 8
  %3 = alloca ptr, align 8
  %4 = alloca %struct.RString, align 8
  store i64 %0, ptr %2, align 8, !tbaa !35
  call void @llvm.lifetime.start.p0(i64 8, ptr %3) #27
  %5 = load i64, ptr %2, align 8, !tbaa !35
  call void @rbimpl_rstring_getmem(ptr dead_on_unwind writable sret(%struct.RString) align 8 %4, i64 noundef %5) #33
  %6 = getelementptr inbounds nuw %struct.RString, ptr %4, i32 0, i32 2
  %7 = getelementptr inbounds nuw %struct.anon.34, ptr %6, i32 0, i32 0
  %8 = load ptr, ptr %7, align 8, !tbaa !66
  store ptr %8, ptr %3, align 8, !tbaa !64
  %9 = load ptr, ptr %3, align 8, !tbaa !64
  call void @llvm.lifetime.end.p0(i64 8, ptr %3) #27
  ret ptr %9
}

; Function Attrs: nounwind sspstrong uwtable
define internal i32 @exec_async_signal_safe(ptr noundef %0, ptr noundef %1, i64 noundef %2) #0 {
  %4 = alloca i32, align 4
  %5 = alloca ptr, align 8
  %6 = alloca ptr, align 8
  %7 = alloca i64, align 8
  %8 = alloca ptr, align 8
  %9 = alloca i32, align 4
  %10 = alloca i32, align 4
  %11 = alloca ptr, align 8
  store ptr %0, ptr %5, align 8, !tbaa !68
  store ptr %1, ptr %6, align 8, !tbaa !64
  store i64 %2, ptr %7, align 8, !tbaa !35
  call void @llvm.lifetime.start.p0(i64 8, ptr %8) #27
  store ptr null, ptr %8, align 8, !tbaa !68
  call void @llvm.lifetime.start.p0(i64 4, ptr %9) #27
  %12 = load ptr, ptr %5, align 8, !tbaa !68
  %13 = load ptr, ptr %6, align 8, !tbaa !64
  %14 = load i64, ptr %7, align 8, !tbaa !35
  %15 = call i32 @rb_execarg_run_options(ptr noundef %12, ptr noundef null, ptr noundef %13, i64 noundef %14)
  %16 = icmp slt i32 %15, 0
  br i1 %16, label %17, label %20

17:                                               ; preds = %3
  %18 = call ptr @rb_errno_ptr()
  %19 = load i32, ptr %18, align 4, !tbaa !34
  store i32 %19, ptr %4, align 4
  store i32 1, ptr %10, align 4
  br label %61

20:                                               ; preds = %3
  %21 = load ptr, ptr %5, align 8, !tbaa !68
  %22 = getelementptr inbounds nuw %struct.rb_execarg, ptr %21, i32 0, i32 5
  %23 = load i16, ptr %22, align 8
  %24 = and i16 %23, 1
  %25 = zext i16 %24 to i32
  %26 = icmp ne i32 %25, 0
  br i1 %26, label %27, label %37

27:                                               ; preds = %20
  %28 = load ptr, ptr %5, align 8, !tbaa !68
  %29 = getelementptr inbounds nuw %struct.rb_execarg, ptr %28, i32 0, i32 0
  %30 = getelementptr inbounds nuw %struct.anon.14, ptr %29, i32 0, i32 0
  %31 = load i64, ptr %30, align 8, !tbaa !66
  %32 = call ptr @RSTRING_PTR(i64 noundef %31)
  %33 = load ptr, ptr %5, align 8, !tbaa !68
  %34 = getelementptr inbounds nuw %struct.rb_execarg, ptr %33, i32 0, i32 2
  %35 = load i64, ptr %34, align 8, !tbaa !105
  %36 = call i32 @proc_exec_sh(ptr noundef %32, i64 noundef %35)
  store i32 %36, ptr %9, align 4, !tbaa !34
  br label %59

37:                                               ; preds = %20
  call void @llvm.lifetime.start.p0(i64 8, ptr %11) #27
  store ptr null, ptr %11, align 8, !tbaa !64
  %38 = load ptr, ptr %5, align 8, !tbaa !68
  %39 = getelementptr inbounds nuw %struct.rb_execarg, ptr %38, i32 0, i32 0
  %40 = getelementptr inbounds nuw %struct.anon.15, ptr %39, i32 0, i32 1
  %41 = load i64, ptr %40, align 8, !tbaa !66
  %42 = call zeroext i1 @RB_NIL_P(i64 noundef %41) #28
  br i1 %42, label %49, label %43

43:                                               ; preds = %37
  %44 = load ptr, ptr %5, align 8, !tbaa !68
  %45 = getelementptr inbounds nuw %struct.rb_execarg, ptr %44, i32 0, i32 0
  %46 = getelementptr inbounds nuw %struct.anon.15, ptr %45, i32 0, i32 1
  %47 = load i64, ptr %46, align 8, !tbaa !66
  %48 = call ptr @RSTRING_PTR(i64 noundef %47)
  store ptr %48, ptr %11, align 8, !tbaa !64
  br label %49

49:                                               ; preds = %43, %37
  %50 = load ptr, ptr %11, align 8, !tbaa !64
  %51 = load ptr, ptr %5, align 8, !tbaa !68
  %52 = getelementptr inbounds nuw %struct.rb_execarg, ptr %51, i32 0, i32 0
  %53 = getelementptr inbounds nuw %struct.anon.15, ptr %52, i32 0, i32 2
  %54 = load i64, ptr %53, align 8, !tbaa !66
  %55 = load ptr, ptr %5, align 8, !tbaa !68
  %56 = getelementptr inbounds nuw %struct.rb_execarg, ptr %55, i32 0, i32 2
  %57 = load i64, ptr %56, align 8, !tbaa !105
  %58 = call i32 @proc_exec_cmd(ptr noundef %50, i64 noundef %54, i64 noundef %57)
  store i32 %58, ptr %9, align 4, !tbaa !34
  call void @llvm.lifetime.end.p0(i64 8, ptr %11) #27
  br label %59

59:                                               ; preds = %49, %27
  %60 = load i32, ptr %9, align 4, !tbaa !34
  store i32 %60, ptr %4, align 4
  store i32 1, ptr %10, align 4
  br label %61

61:                                               ; preds = %59, %17
  call void @llvm.lifetime.end.p0(i64 4, ptr %9) #27
  call void @llvm.lifetime.end.p0(i64 8, ptr %8) #27
  %62 = load i32, ptr %4, align 4
  ret i32 %62
}