; Function Attrs: nounwind sspstrong uwtable
define internal fastcc i32 @exec_async_signal_safe(ptr noundef readonly captures(none) %0, ptr noundef %1, i64 noundef %2) unnamed_addr #1 {
  %4 = tail call i32 @rb_execarg_run_options(ptr noundef %0, ptr noundef null, ptr noundef %1, i64 noundef %2)
  %5 = icmp slt i32 %4, 0
  br i1 %5, label %6, label %9

6:                                                ; preds = %3
  %7 = tail call ptr @rb_errno_ptr() #27
  %8 = load i32, ptr %7, align 4, !tbaa !60
  br label %proc_exec_sh.exit

9:                                                ; preds = %3
  %10 = getelementptr inbounds nuw i8, ptr %0, i64 64
  %11 = load i16, ptr %10, align 8
  %12 = and i16 %11, 1
  %.not = icmp eq i16 %12, 0
  br i1 %.not, label %36, label %13

13:                                               ; preds = %9
  %14 = load i64, ptr %0, align 8, !tbaa !67
  %15 = inttoptr i64 %14 to ptr
  %16 = load i64, ptr %15, align 8, !tbaa !69, !noalias !167
  %17 = and i64 %16, 8192
  %.not.i.i = icmp eq i64 %17, 0
  %18 = getelementptr inbounds nuw i8, ptr %15, i64 24
  br i1 %.not.i.i, label %RSTRING_PTR.exit, label %19

19:                                               ; preds = %13
  %.sroa.2.0.copyload.i = load ptr, ptr %18, align 8
  br label %RSTRING_PTR.exit

RSTRING_PTR.exit:                                 ; preds = %13, %19
  %.sroa.2.0.i = phi ptr [ %.sroa.2.0.copyload.i, %19 ], [ %18, %13 ]
  %20 = getelementptr inbounds nuw i8, ptr %0, i64 40
  %21 = load i64, ptr %20, align 8, !tbaa !160
  br label %22

22:                                               ; preds = %.critedge.i, %RSTRING_PTR.exit
  %.0.i = phi ptr [ %.sroa.2.0.i, %RSTRING_PTR.exit ], [ %24, %.critedge.i ]
  %23 = load i8, ptr %.0.i, align 1, !tbaa !67
  switch i8 %23, label %25 [
    i8 32, label %.critedge.i
    i8 9, label %.critedge.i
    i8 10, label %.critedge.i
    i8 0, label %proc_exec_sh.exit
  ]

.critedge.i:                                      ; preds = %22, %22, %22
  %24 = getelementptr i8, ptr %.0.i, i64 1
  br label %22, !llvm.loop !68

25:                                               ; preds = %22
  %.not13.i = icmp eq i64 %21, 0
  br i1 %.not13.i, label %31, label %26

26:                                               ; preds = %25
  %27 = inttoptr i64 %21 to ptr
  %28 = getelementptr inbounds nuw i8, ptr %27, i64 16
  %29 = load ptr, ptr %28, align 8, !tbaa !133
  %30 = tail call i32 (ptr, ptr, ...) @execle(ptr noundef nonnull @.str.174, ptr noundef nonnull @.str.175, ptr noundef nonnull @.str.176, ptr noundef %.sroa.2.0.i, ptr noundef null, ptr noundef %29) #27
  br label %33

31:                                               ; preds = %25
  %32 = tail call i32 (ptr, ptr, ...) @execl(ptr noundef nonnull @.str.174, ptr noundef nonnull @.str.175, ptr noundef nonnull @.str.176, ptr noundef %.sroa.2.0.i, ptr noundef null) #27
  br label %33

33:                                               ; preds = %31, %26
  %34 = tail call ptr @rb_errno_ptr() #27
  %35 = load i32, ptr %34, align 4, !tbaa !60
  br label %proc_exec_sh.exit

36:                                               ; preds = %9
  %37 = getelementptr inbounds nuw i8, ptr %0, i64 8
  %38 = load i64, ptr %37, align 8, !tbaa !67
  %39 = icmp eq i64 %38, 4
  br i1 %39, label %proc_exec_sh.exit, label %40

40:                                               ; preds = %36
  %41 = inttoptr i64 %38 to ptr
  %42 = load i64, ptr %41, align 8, !tbaa !69, !noalias !170
  %43 = and i64 %42, 8192
  %.not.i.i14 = icmp eq i64 %43, 0
  %44 = getelementptr inbounds nuw i8, ptr %41, i64 24
  br i1 %.not.i.i14, label %RSTRING_PTR.exit17.thread22, label %RSTRING_PTR.exit17

RSTRING_PTR.exit17:                               ; preds = %40
  %.sroa.2.0.copyload.i15 = load ptr, ptr %44, align 8
  %.not.i = icmp eq ptr %.sroa.2.0.copyload.i15, null
  br i1 %.not.i, label %proc_exec_sh.exit, label %RSTRING_PTR.exit17.thread22

RSTRING_PTR.exit17.thread22:                      ; preds = %40, %RSTRING_PTR.exit17
  %.025 = phi ptr [ %.sroa.2.0.copyload.i15, %RSTRING_PTR.exit17 ], [ %44, %40 ]
  %.in26 = getelementptr inbounds nuw i8, ptr %0, i64 40
  %45 = load i64, ptr %.in26, align 8, !tbaa !160
  %.pn.in.in = getelementptr inbounds nuw i8, ptr %0, i64 16
  %.pn.in = load i64, ptr %.pn.in.in, align 8, !tbaa !67
  %.pn = inttoptr i64 %.pn.in to ptr
  %.in = getelementptr inbounds nuw i8, ptr %.pn, i64 16
  %46 = load ptr, ptr %.in, align 8, !tbaa !133
  %47 = getelementptr i8, ptr %46, i64 8
  %.not17.i = icmp eq i64 %45, 0
  br i1 %.not17.i, label %53, label %48

48:                                               ; preds = %RSTRING_PTR.exit17.thread22
  %49 = inttoptr i64 %45 to ptr
  %50 = getelementptr inbounds nuw i8, ptr %49, i64 16
  %51 = load ptr, ptr %50, align 8, !tbaa !133
  %52 = tail call i32 @execve(ptr noundef nonnull %.025, ptr noundef %47, ptr noundef %51) #27
  br label %55

53:                                               ; preds = %RSTRING_PTR.exit17.thread22
  %54 = tail call i32 @execv(ptr noundef nonnull %.025, ptr noundef %47) #27
  br label %55

55:                                               ; preds = %53, %48
  %56 = phi ptr [ null, %53 ], [ %51, %48 ]
  %57 = tail call ptr @rb_errno_ptr() #27
  %58 = load i32, ptr %57, align 4, !tbaa !60
  %59 = icmp eq i32 %58, 8
  br i1 %59, label %60, label %proc_exec_sh.exit

60:                                               ; preds = %55
  store ptr %.025, ptr %47, align 8, !tbaa !124
  store ptr @.str.175, ptr %46, align 8, !tbaa !124
  %.not.i.i19 = icmp eq ptr %56, null
  br i1 %.not.i.i19, label %63, label %61

61:                                               ; preds = %60
  %62 = tail call i32 @execve(ptr noundef nonnull @.str.174, ptr noundef nonnull %46, ptr noundef nonnull %56) #27
  br label %proc_exec_sh.exit

63:                                               ; preds = %60
  %64 = tail call i32 @execv(ptr noundef nonnull @.str.174, ptr noundef nonnull %46) #27
  br label %proc_exec_sh.exit

proc_exec_sh.exit:                                ; preds = %22, %36, %63, %61, %55, %RSTRING_PTR.exit17, %33, %6
  %.013 = phi i32 [ %8, %6 ], [ %35, %33 ], [ 2, %RSTRING_PTR.exit17 ], [ %58, %55 ], [ 8, %61 ], [ 8, %63 ], [ 2, %36 ], [ 2, %22 ]
  ret i32 %.013
}